target datalayout = "e-m:e-p270:32:32-p271:32:32-p272:64:64-i64:64-i128:128-f80:128-n8:16:32:64-S128"
target triple = "x86_64-pc-linux-gnu"

%"class.llvm::StringRef" = type { ptr, i64 }
%"class.(anonymous namespace)::SDiagsWriter" = type { %"class.clang::DiagnosticConsumer", ptr, i8, i8, i8, %"class.std::shared_ptr" }
%"class.clang::DiagnosticConsumer" = type { ptr, i32, i32 }
%"class.std::shared_ptr" = type { %"class.std::__shared_ptr" }
%"class.std::__shared_ptr" = type { ptr, %"class.std::__shared_count" }
%"class.std::__shared_count" = type { ptr }
%"struct.(anonymous namespace)::SDiagsWriter::SharedState" = type { %"class.llvm::IntrusiveRefCntPtr", %"class.llvm::SmallString", %"class.llvm::BitstreamWriter", %"class.std::__cxx11::basic_string", %"class.(anonymous namespace)::AbbreviationMap", %"class.llvm::SmallVector.29", %"class.llvm::SmallString.35", %"class.llvm::DenseSet", %"class.llvm::DenseMap.41", %"class.llvm::DenseMap.44", i8, %"class.std::unique_ptr.47" }
%"class.llvm::IntrusiveRefCntPtr" = type { ptr }
%"class.llvm::SmallString" = type { %"class.llvm::SmallVector" }
%"class.llvm::SmallVector" = type { %"class.llvm::SmallVectorImpl", %"struct.llvm::SmallVectorStorage" }
%"class.llvm::SmallVectorImpl" = type { %"class.llvm::SmallVectorTemplateBase" }
%"class.llvm::SmallVectorTemplateBase" = type { %"class.llvm::SmallVectorTemplateCommon" }
%"class.llvm::SmallVectorTemplateCommon" = type { %"class.llvm::SmallVectorBase" }
%"class.llvm::SmallVectorBase" = type { ptr, i64, i64 }
%"struct.llvm::SmallVectorStorage" = type { [1024 x i8] }
%"class.llvm::BitstreamWriter" = type { %"class.llvm::SmallVector.11", ptr, ptr, i64, i32, i32, i32, i32, %"class.std::vector", %"class.std::optional", %"class.std::vector.16", %"class.std::vector.21" }
%"class.llvm::SmallVector.11" = type { %"class.llvm::SmallVectorImpl" }
%"class.std::vector" = type { %"struct.std::_Vector_base" }
%"struct.std::_Vector_base" = type { %"struct.std::_Vector_base<std::shared_ptr<llvm::BitCodeAbbrev>, std::allocator<std::shared_ptr<llvm::BitCodeAbbrev>>>::_Vector_impl" }
%"struct.std::_Vector_base<std::shared_ptr<llvm::BitCodeAbbrev>, std::allocator<std::shared_ptr<llvm::BitCodeAbbrev>>>::_Vector_impl" = type { %"struct.std::_Vector_base<std::shared_ptr<llvm::BitCodeAbbrev>, std::allocator<std::shared_ptr<llvm::BitCodeAbbrev>>>::_Vector_impl_data" }
%"struct.std::_Vector_base<std::shared_ptr<llvm::BitCodeAbbrev>, std::allocator<std::shared_ptr<llvm::BitCodeAbbrev>>>::_Vector_impl_data" = type { ptr, ptr, ptr }
%"class.std::optional" = type { %"struct.std::_Optional_base" }
%"struct.std::_Optional_base" = type { %"struct.std::_Optional_payload" }
%"struct.std::_Optional_payload" = type { %"struct.std::_Optional_payload_base.base", [7 x i8] }
%"struct.std::_Optional_payload_base.base" = type <{ %"union.std::_Optional_payload_base<unsigned long>::_Storage", i8 }>
%"union.std::_Optional_payload_base<unsigned long>::_Storage" = type { i64 }
%"class.std::vector.16" = type { %"struct.std::_Vector_base.17" }
%"struct.std::_Vector_base.17" = type { %"struct.std::_Vector_base<llvm::BitstreamWriter::Block, std::allocator<llvm::BitstreamWriter::Block>>::_Vector_impl" }
%"struct.std::_Vector_base<llvm::BitstreamWriter::Block, std::allocator<llvm::BitstreamWriter::Block>>::_Vector_impl" = type { %"struct.std::_Vector_base<llvm::BitstreamWriter::Block, std::allocator<llvm::BitstreamWriter::Block>>::_Vector_impl_data" }
%"struct.std::_Vector_base<llvm::BitstreamWriter::Block, std::allocator<llvm::BitstreamWriter::Block>>::_Vector_impl_data" = type { ptr, ptr, ptr }
%"class.std::vector.21" = type { %"struct.std::_Vector_base.22" }
%"struct.std::_Vector_base.22" = type { %"struct.std::_Vector_base<llvm::BitstreamWriter::BlockInfo, std::allocator<llvm::BitstreamWriter::BlockInfo>>::_Vector_impl" }
%"struct.std::_Vector_base<llvm::BitstreamWriter::BlockInfo, std::allocator<llvm::BitstreamWriter::BlockInfo>>::_Vector_impl" = type { %"struct.std::_Vector_base<llvm::BitstreamWriter::BlockInfo, std::allocator<llvm::BitstreamWriter::BlockInfo>>::_Vector_impl_data" }
%"struct.std::_Vector_base<llvm::BitstreamWriter::BlockInfo, std::allocator<llvm::BitstreamWriter::BlockInfo>>::_Vector_impl_data" = type { ptr, ptr, ptr }
%"class.std::__cxx11::basic_string" = type { %"struct.std::__cxx11::basic_string<char>::_Alloc_hider", i64, %union.anon }
%"struct.std::__cxx11::basic_string<char>::_Alloc_hider" = type { ptr }
%union.anon = type { i64, [8 x i8] }
%"class.(anonymous namespace)::AbbreviationMap" = type { %"class.llvm::DenseMap" }
%"class.llvm::DenseMap" = type <{ ptr, i32, i32, i32, [4 x i8] }>
%"class.llvm::SmallVector.29" = type { %"class.llvm::SmallVectorImpl.30", %"struct.llvm::SmallVectorStorage.34" }
%"class.llvm::SmallVectorImpl.30" = type { %"class.llvm::SmallVectorTemplateBase.31" }
%"class.llvm::SmallVectorTemplateBase.31" = type { %"class.llvm::SmallVectorTemplateCommon.32" }
%"class.llvm::SmallVectorTemplateCommon.32" = type { %"class.llvm::SmallVectorBase.33" }
%"class.llvm::SmallVectorBase.33" = type { ptr, i32, i32 }
%"struct.llvm::SmallVectorStorage.34" = type { [512 x i8] }
%"class.llvm::SmallString.35" = type { %"class.llvm::SmallVector.36" }
%"class.llvm::SmallVector.36" = type { %"class.llvm::SmallVectorImpl", %"struct.llvm::SmallVectorStorage.37" }
%"struct.llvm::SmallVectorStorage.37" = type { [256 x i8] }
%"class.llvm::DenseSet" = type { %"class.llvm::detail::DenseSetImpl" }
%"class.llvm::detail::DenseSetImpl" = type { %"class.llvm::DenseMap.38" }
%"class.llvm::DenseMap.38" = type <{ ptr, i32, i32, i32, [4 x i8] }>
%"class.llvm::DenseMap.41" = type <{ ptr, i32, i32, i32, [4 x i8] }>
%"class.llvm::DenseMap.44" = type <{ ptr, i32, i32, i32, [4 x i8] }>
%"class.std::unique_ptr.47" = type { %"struct.std::__uniq_ptr_data.48" }
%"struct.std::__uniq_ptr_data.48" = type { %"class.std::__uniq_ptr_impl.49" }
%"class.std::__uniq_ptr_impl.49" = type { %"class.std::tuple.50" }
%"class.std::tuple.50" = type { %"struct.std::_Tuple_impl.51" }
%"struct.std::_Tuple_impl.51" = type { %"struct.std::_Head_base.54" }
%"struct.std::_Head_base.54" = type { ptr }
%"class.clang::FullSourceLoc" = type { %"class.clang::SourceLocation", ptr }
%"class.clang::SourceLocation" = type { i32 }
%"class.clang::PresumedLoc" = type { ptr, %"class.clang::FileID", i32, i32, %"class.clang::SourceLocation" }
%"class.clang::FileID" = type { i32 }
%"class.llvm::PointerUnion" = type { %"class.llvm::pointer_union_detail::PointerUnionMembers" }
%"class.llvm::pointer_union_detail::PointerUnionMembers" = type { %"class.llvm::pointer_union_detail::PointerUnionMembers.193" }
%"class.llvm::pointer_union_detail::PointerUnionMembers.193" = type { %"class.llvm::pointer_union_detail::PointerUnionMembers.194" }
%"class.llvm::pointer_union_detail::PointerUnionMembers.194" = type { %"class.llvm::PointerIntPair" }
%"class.llvm::PointerIntPair" = type { %"struct.llvm::detail::PunnedPointer" }
%"struct.llvm::detail::PunnedPointer" = type { [8 x i8] }
%"class.(anonymous namespace)::SDiagsRenderer" = type { %"class.clang::DiagnosticNoteRenderer.base", ptr }
%"class.clang::DiagnosticNoteRenderer.base" = type { %"class.clang::DiagnosticRenderer.base" }
%"class.clang::DiagnosticRenderer.base" = type <{ ptr, ptr, %"class.llvm::IntrusiveRefCntPtr", %"class.clang::SourceLocation", %"class.clang::SourceLocation", i32 }>

; Function Attrs: mustprogress nounwind uwtable
define linkonce_odr hidden noundef nonnull align 8 dereferenceable(8) ptr @_ZN4llvm6detail13PunnedPointerIPvEaSEl(ptr noundef nonnull align 8 dereferenceable(8) %0, i64 noundef %1) #0 comdat align 2 {
  %3 = alloca ptr, align 8
  %4 = alloca i64, align 8
  store ptr %0, ptr %3, align 8
  store i64 %1, ptr %4, align 8
  %5 = load ptr, ptr %3, align 8
  %6 = getelementptr inbounds nuw %"struct.llvm::detail::PunnedPointer", ptr %5, i32 0, i32 0
  %7 = getelementptr inbounds [8 x i8], ptr %6, i64 0, i64 0
  call void @llvm.memcpy.p0.p0.i64(ptr align 8 %7, ptr align 8 %4, i64 8, i1 false)
  ret ptr %5
}

; Function Attrs: mustprogress nounwind uwtable
define linkonce_odr hidden void @_ZN4llvm6detail13PunnedPointerIPvEC2El(ptr noundef nonnull align 8 dereferenceable(8) %0, i64 noundef %1) unnamed_addr #0 comdat align 2 {
  %3 = alloca ptr, align 8
  %4 = alloca i64, align 8
  store ptr %0, ptr %3, align 8
  store i64 %1, ptr %4, align 8
  %5 = load ptr, ptr %3, align 8
  %6 = load i64, ptr %4, align 8
  %7 = call noundef nonnull align 8 dereferenceable(8) ptr @_ZN4llvm6detail13PunnedPointerIPvEaSEl(ptr noundef nonnull align 8 dereferenceable(8) %5, i64 noundef %6)
  ret void
}

; Function Attrs: mustprogress nounwind uwtable
define linkonce_odr hidden void @_ZN4llvm14PointerIntPairIPvLj1EiNS_20pointer_union_detail22PointerUnionUIntTraitsIJPKN5clang10DiagnosticEPKNS4_16StoredDiagnosticEEEENS_18PointerIntPairInfoIS1_Lj1ESB_EEEC2Ev(ptr noundef nonnull align 8 dereferenceable(8) %0) unnamed_addr #0 comdat align 2 {
  %2 = alloca ptr, align 8
  store ptr %0, ptr %2, align 8
  %3 = load ptr, ptr %2, align 8
  %4 = getelementptr inbounds nuw %"class.llvm::PointerIntPair", ptr %3, i32 0, i32 0
  call void @_ZN4llvm6detail13PunnedPointerIPvEC2El(ptr noundef nonnull align 8 dereferenceable(8) %4, i64 noundef 0)
  ret void
}

; Function Attrs: mustprogress nounwind uwtable
define linkonce_odr hidden void @_ZN4llvm20pointer_union_detail19PointerUnionMembersINS_12PointerUnionIJPKN5clang10DiagnosticEPKNS3_16StoredDiagnosticEEEENS_14PointerIntPairIPvLj1EiNS0_22PointerUnionUIntTraitsIJS6_S9_EEENS_18PointerIntPairInfoISC_Lj1ESE_EEEELi2EJEEC2Ev(ptr noundef nonnull align 8 dereferenceable(8) %0) unnamed_addr #0 comdat align 2 {
  %2 = alloca ptr, align 8
  store ptr %0, ptr %2, align 8
  %3 = load ptr, ptr %2, align 8
  %4 = getelementptr inbounds nuw %"class.llvm::pointer_union_detail::PointerUnionMembers.194", ptr %3, i32 0, i32 0
  call void @_ZN4llvm14PointerIntPairIPvLj1EiNS_20pointer_union_detail22PointerUnionUIntTraitsIJPKN5clang10DiagnosticEPKNS4_16StoredDiagnosticEEEENS_18PointerIntPairInfoIS1_Lj1ESB_EEEC2Ev(ptr noundef nonnull align 8 dereferenceable(8) %4)
  ret void
}

; Function Attrs: mustprogress nounwind uwtable
define internal noundef ptr @_ZNKSt12__shared_ptrIN12_GLOBAL__N_112SDiagsWriter11SharedStateELN9__gnu_cxx12_Lock_policyE2EE3getEv(ptr noundef nonnull align 8 dereferenceable(16) %0) #0 align 2 {
  %2 = alloca ptr, align 8
  store ptr %0, ptr %2, align 8
  %3 = load ptr, ptr %2, align 8
  %4 = getelementptr inbounds nuw %"class.std::__shared_ptr", ptr %3, i32 0, i32 0
  %5 = load ptr, ptr %4, align 8
  ret ptr %5
}

; Function Attrs: mustprogress nounwind uwtable
define linkonce_odr hidden void @_ZN4llvm20pointer_union_detail19PointerUnionMembersINS_12PointerUnionIJPKN5clang10DiagnosticEPKNS3_16StoredDiagnosticEEEENS_14PointerIntPairIPvLj1EiNS0_22PointerUnionUIntTraitsIJS6_S9_EEENS_18PointerIntPairInfoISC_Lj1ESE_EEEELi1EJS9_EEC2Ev(ptr noundef nonnull align 8 dereferenceable(8) %0) unnamed_addr #0 comdat align 2 {
  %2 = alloca ptr, align 8
  store ptr %0, ptr %2, align 8
  %3 = load ptr, ptr %2, align 8
  call void @_ZN4llvm20pointer_union_detail19PointerUnionMembersINS_12PointerUnionIJPKN5clang10DiagnosticEPKNS3_16StoredDiagnosticEEEENS_14PointerIntPairIPvLj1EiNS0_22PointerUnionUIntTraitsIJS6_S9_EEENS_18PointerIntPairInfoISC_Lj1ESE_EEEELi2EJEEC2Ev(ptr noundef nonnull align 8 dereferenceable(8) %3)
  ret void
}

; Function Attrs: mustprogress nounwind uwtable
define internal noundef ptr @_ZNKSt19__shared_ptr_accessIN12_GLOBAL__N_112SDiagsWriter11SharedStateELN9__gnu_cxx12_Lock_policyE2ELb0ELb0EE6_M_getEv(ptr noundef nonnull align 1 dereferenceable(1) %0) #0 align 2 {
  %2 = alloca ptr, align 8
  store ptr %0, ptr %2, align 8
  %3 = load ptr, ptr %2, align 8
  %4 = call noundef ptr @_ZNKSt12__shared_ptrIN12_GLOBAL__N_112SDiagsWriter11SharedStateELN9__gnu_cxx12_Lock_policyE2EE3getEv(ptr noundef nonnull align 8 dereferenceable(16) %3) #13
  ret ptr %4
}

; Function Attrs: mustprogress nounwind uwtable
define linkonce_odr hidden void @_ZN4llvm20pointer_union_detail19PointerUnionMembersINS_12PointerUnionIJPKN5clang10DiagnosticEPKNS3_16StoredDiagnosticEEEENS_14PointerIntPairIPvLj1EiNS0_22PointerUnionUIntTraitsIJS6_S9_EEENS_18PointerIntPairInfoISC_Lj1ESE_EEEELi0EJS6_S9_EEC2Ev(ptr noundef nonnull align 8 dereferenceable(8) %0) unnamed_addr #0 comdat align 2 {
  %2 = alloca ptr, align 8
  store ptr %0, ptr %2, align 8
  %3 = load ptr, ptr %2, align 8
  call void @_ZN4llvm20pointer_union_detail19PointerUnionMembersINS_12PointerUnionIJPKN5clang10DiagnosticEPKNS3_16StoredDiagnosticEEEENS_14PointerIntPairIPvLj1EiNS0_22PointerUnionUIntTraitsIJS6_S9_EEENS_18PointerIntPairInfoISC_Lj1ESE_EEEELi1EJS9_EEC2Ev(ptr noundef nonnull align 8 dereferenceable(8) %3)
  ret void
}

; Function Attrs: mustprogress nounwind uwtable
define linkonce_odr hidden void @_ZN5clang14SourceLocationC2Ev(ptr noundef nonnull align 4 dereferenceable(4) %0) unnamed_addr #0 comdat align 2 {
  %2 = alloca ptr, align 8
  store ptr %0, ptr %2, align 8
  %3 = load ptr, ptr %2, align 8
  %4 = getelementptr inbounds nuw %"class.clang::SourceLocation", ptr %3, i32 0, i32 0
  store i32 0, ptr %4, align 4
  ret void
}

; Function Attrs: mustprogress nounwind uwtable
define linkonce_odr hidden void @_ZN5clang6FileIDC2Ev(ptr noundef nonnull align 4 dereferenceable(4) %0) unnamed_addr #0 comdat align 2 {
  %2 = alloca ptr, align 8
  store ptr %0, ptr %2, align 8
  %3 = load ptr, ptr %2, align 8
  %4 = getelementptr inbounds nuw %"class.clang::FileID", ptr %3, i32 0, i32 0
  store i32 0, ptr %4, align 4
  ret void
}

; Function Attrs: mustprogress nounwind uwtable
define internal noundef ptr @_ZNKSt19__shared_ptr_accessIN12_GLOBAL__N_112SDiagsWriter11SharedStateELN9__gnu_cxx12_Lock_policyE2ELb0ELb0EEptEv(ptr noundef nonnull align 1 dereferenceable(1) %0) #0 align 2 {
  %2 = alloca ptr, align 8
  store ptr %0, ptr %2, align 8
  %3 = load ptr, ptr %2, align 8
  %4 = call noundef ptr @_ZNKSt19__shared_ptr_accessIN12_GLOBAL__N_112SDiagsWriter11SharedStateELN9__gnu_cxx12_Lock_policyE2ELb0ELb0EE6_M_getEv(ptr noundef nonnull align 1 dereferenceable(1) %3) #13
  ret ptr %4
}

; Function Attrs: mustprogress nounwind uwtable
define internal void @_ZN12_GLOBAL__N_112SDiagsWriter13ExitDiagBlockEv(ptr noundef nonnull align 8 dereferenceable(48) %0) #0 align 2 {
  %2 = alloca ptr, align 8
  store ptr %0, ptr %2, align 8
  %3 = load ptr, ptr %2, align 8
  %4 = getelementptr inbounds nuw %"class.(anonymous namespace)::SDiagsWriter", ptr %3, i32 0, i32 5
  %5 = call noundef ptr @_ZNKSt19__shared_ptr_accessIN12_GLOBAL__N_112SDiagsWriter11SharedStateELN9__gnu_cxx12_Lock_policyE2ELb0ELb0EEptEv(ptr noundef nonnull align 1 dereferenceable(1) %4) #13
  %6 = getelementptr inbounds nuw %"struct.(anonymous namespace)::SDiagsWriter::SharedState", ptr %5, i32 0, i32 2
  call void @_ZN4llvm15BitstreamWriter9ExitBlockEv(ptr noundef nonnull align 8 dereferenceable(152) %6)
  ret void
}

; Function Attrs: mustprogress nounwind uwtable
define linkonce_odr hidden void @_ZN4llvm12PointerUnionIJPKN5clang10DiagnosticEPKNS1_16StoredDiagnosticEEEC2Ev(ptr noundef nonnull align 8 dereferenceable(8) %0) unnamed_addr #0 comdat align 2 {
  %2 = alloca ptr, align 8
  store ptr %0, ptr %2, align 8
  %3 = load ptr, ptr %2, align 8
  call void @_ZN4llvm20pointer_union_detail19PointerUnionMembersINS_12PointerUnionIJPKN5clang10DiagnosticEPKNS3_16StoredDiagnosticEEEENS_14PointerIntPairIPvLj1EiNS0_22PointerUnionUIntTraitsIJS6_S9_EEENS_18PointerIntPairInfoISC_Lj1ESE_EEEELi0EJS6_S9_EEC2Ev(ptr noundef nonnull align 8 dereferenceable(8) %3)
  ret void
}

; Function Attrs: mustprogress nounwind uwtable
define linkonce_odr hidden void @_ZN5clang11PresumedLocC2Ev(ptr noundef nonnull align 8 dereferenceable(24) %0) unnamed_addr #0 comdat align 2 {
  %2 = alloca ptr, align 8
  store ptr %0, ptr %2, align 8
  %3 = load ptr, ptr %2, align 8
  %4 = getelementptr inbounds nuw %"class.clang::PresumedLoc", ptr %3, i32 0, i32 0
  store ptr null, ptr %4, align 8
  %5 = getelementptr inbounds nuw %"class.clang::PresumedLoc", ptr %3, i32 0, i32 1
  call void @_ZN5clang6FileIDC2Ev(ptr noundef nonnull align 4 dereferenceable(4) %5) #13
  %6 = getelementptr inbounds nuw %"class.clang::PresumedLoc", ptr %3, i32 0, i32 4
  call void @_ZN5clang14SourceLocationC2Ev(ptr noundef nonnull align 4 dereferenceable(4) %6) #13
  ret void
}

; Function Attrs: mustprogress nounwind uwtable
define linkonce_odr hidden noundef zeroext i1 @_ZNK5clang13FullSourceLoc10hasManagerEv(ptr noundef nonnull align 8 dereferenceable(16) %0) #0 comdat align 2 {
  %2 = alloca ptr, align 8
  store ptr %0, ptr %2, align 8
  %3 = load ptr, ptr %2, align 8
  %4 = getelementptr inbounds nuw %"class.clang::FullSourceLoc", ptr %3, i32 0, i32 1
  %5 = load ptr, ptr %4, align 8
  %6 = icmp ne ptr %5, null
  ret i1 %6
}

; Function Attrs: mustprogress nounwind uwtable
define internal void @_ZN12_GLOBAL__N_112SDiagsWriter14EnterDiagBlockEv(ptr noundef nonnull align 8 dereferenceable(48) %0) #0 align 2 {
  %2 = alloca ptr, align 8
  store ptr %0, ptr %2, align 8
  %3 = load ptr, ptr %2, align 8
  %4 = getelementptr inbounds nuw %"class.(anonymous namespace)::SDiagsWriter", ptr %3, i32 0, i32 5
  %5 = call noundef ptr @_ZNKSt19__shared_ptr_accessIN12_GLOBAL__N_112SDiagsWriter11SharedStateELN9__gnu_cxx12_Lock_policyE2ELb0ELb0EEptEv(ptr noundef nonnull align 1 dereferenceable(1) %4) #13
  %6 = getelementptr inbounds nuw %"struct.(anonymous namespace)::SDiagsWriter::SharedState", ptr %5, i32 0, i32 2
  call void @_ZN4llvm15BitstreamWriter13EnterSubblockEjj(ptr noundef nonnull align 8 dereferenceable(152) %6, i32 noundef 9, i32 noundef 4)
  ret void
}

; Function Attrs: mustprogress nounwind uwtable
define internal void @_ZN12_GLOBAL__N_114SDiagsRenderer8emitNoteEN5clang13FullSourceLocEN4llvm9StringRefE(ptr noundef nonnull align 8 dereferenceable(48) %0, i32 %1, ptr %2, ptr %3, i64 %4) unnamed_addr #0 align 2 {
  %6 = alloca %"class.clang::FullSourceLoc", align 8
  %7 = alloca %"class.llvm::StringRef", align 8
  %8 = alloca ptr, align 8
  %9 = alloca %"class.clang::PresumedLoc", align 8
  %10 = alloca %"class.clang::FullSourceLoc", align 8
  %11 = alloca %"class.clang::PresumedLoc", align 8
  %12 = alloca %"class.llvm::StringRef", align 8
  %13 = alloca %"class.llvm::PointerUnion", align 8
  %14 = getelementptr inbounds nuw { i32, ptr }, ptr %6, i32 0, i32 0
  store i32 %1, ptr %14, align 8
  %15 = getelementptr inbounds nuw { i32, ptr }, ptr %6, i32 0, i32 1
  store ptr %2, ptr %15, align 8
  %16 = getelementptr inbounds nuw { ptr, i64 }, ptr %7, i32 0, i32 0
  store ptr %3, ptr %16, align 8
  %17 = getelementptr inbounds nuw { ptr, i64 }, ptr %7, i32 0, i32 1
  store i64 %4, ptr %17, align 8
  store ptr %0, ptr %8, align 8
  %18 = load ptr, ptr %8, align 8
  %19 = getelementptr inbounds nuw %"class.(anonymous namespace)::SDiagsRenderer", ptr %18, i32 0, i32 1
  %20 = load ptr, ptr %19, align 8
  call void @_ZN12_GLOBAL__N_112SDiagsWriter14EnterDiagBlockEv(ptr noundef nonnull align 8 dereferenceable(48) %20)
  %21 = call noundef zeroext i1 @_ZNK5clang13FullSourceLoc10hasManagerEv(ptr noundef nonnull align 8 dereferenceable(16) %6)
  br i1 %21, label %22, label %23

22:                                               ; preds = %5
  call void @_ZNK5clang13FullSourceLoc14getPresumedLocEb(ptr dead_on_unwind writable sret(%"class.clang::PresumedLoc") align 8 %9, ptr noundef nonnull align 8 dereferenceable(16) %6, i1 noundef zeroext true)
  br label %24

23:                                               ; preds = %5
  call void @llvm.memset.p0.i64(ptr align 8 %9, i8 0, i64 24, i1 false)
  call void @_ZN5clang11PresumedLocC2Ev(ptr noundef nonnull align 8 dereferenceable(24) %9) #13
  br label %24

24:                                               ; preds = %23, %22
  %25 = getelementptr inbounds nuw %"class.(anonymous namespace)::SDiagsRenderer", ptr %18, i32 0, i32 1
  %26 = load ptr, ptr %25, align 8
  call void @llvm.memcpy.p0.p0.i64(ptr align 8 %10, ptr align 8 %6, i64 16, i1 false)
  call void @llvm.memcpy.p0.p0.i64(ptr align 8 %11, ptr align 8 %9, i64 24, i1 false)
  call void @llvm.memcpy.p0.p0.i64(ptr align 8 %12, ptr align 8 %7, i64 16, i1 false)
  call void @llvm.memset.p0.i64(ptr align 8 %13, i8 0, i64 8, i1 false)
  call void @_ZN4llvm12PointerUnionIJPKN5clang10DiagnosticEPKNS1_16StoredDiagnosticEEEC2Ev(ptr noundef nonnull align 8 dereferenceable(8) %13)
  %27 = getelementptr inbounds nuw { i32, ptr }, ptr %10, i32 0, i32 0
  %28 = load i32, ptr %27, align 8
  %29 = getelementptr inbounds nuw { i32, ptr }, ptr %10, i32 0, i32 1
  %30 = load ptr, ptr %29, align 8
  %31 = getelementptr inbounds nuw { ptr, i64 }, ptr %12, i32 0, i32 0
  %32 = load ptr, ptr %31, align 8
  %33 = getelementptr inbounds nuw { ptr, i64 }, ptr %12, i32 0, i32 1
  %34 = load i64, ptr %33, align 8
  %35 = getelementptr inbounds nuw %"class.llvm::PointerUnion", ptr %13, i32 0, i32 0
  %36 = getelementptr inbounds nuw %"class.llvm::pointer_union_detail::PointerUnionMembers", ptr %35, i32 0, i32 0
  %37 = getelementptr inbounds nuw %"class.llvm::pointer_union_detail::PointerUnionMembers.193", ptr %36, i32 0, i32 0
  %38 = getelementptr inbounds nuw %"class.llvm::pointer_union_detail::PointerUnionMembers.194", ptr %37, i32 0, i32 0
  %39 = getelementptr inbounds nuw %"class.llvm::PointerIntPair", ptr %38, i32 0, i32 0
  %40 = getelementptr inbounds nuw %"struct.llvm::detail::PunnedPointer", ptr %39, i32 0, i32 0
  %41 = load i64, ptr %40, align 8
  call void @_ZN12_GLOBAL__N_112SDiagsWriter21EmitDiagnosticMessageEN5clang13FullSourceLocENS1_11PresumedLocENS1_17DiagnosticsEngine5LevelEN4llvm9StringRefENS6_12PointerUnionIJPKNS1_10DiagnosticEPKNS1_16StoredDiagnosticEEEE(ptr noundef nonnull align 8 dereferenceable(48) %26, i32 %28, ptr %30, ptr noundef byval(%"class.clang::PresumedLoc") align 8 %11, i32 noundef 1, ptr %32, i64 %34, i64 %41)
  %42 = getelementptr inbounds nuw %"class.(anonymous namespace)::SDiagsRenderer", ptr %18, i32 0, i32 1
  %43 = load ptr, ptr %42, align 8
  call void @_ZN12_GLOBAL__N_112SDiagsWriter13ExitDiagBlockEv(ptr noundef nonnull align 8 dereferenceable(48) %43)
  ret void
}