; Function Attrs: mustprogress nounwind uwtable
define internal void @_ZN12_GLOBAL__N_114SDiagsRenderer8emitNoteEN5clang13FullSourceLocEN4llvm9StringRefE(ptr noundef nonnull readonly align 8 captures(none) dereferenceable(48) %0, i32 %1, ptr %2, ptr %3, i64 %4) unnamed_addr #0 align 2 {
  %6 = alloca %"class.clang::FullSourceLoc", align 8
  %7 = alloca %"class.clang::PresumedLoc", align 8
  store i32 %1, ptr %6, align 8
  %8 = getelementptr inbounds nuw i8, ptr %6, i64 8
  store ptr %2, ptr %8, align 8
  %9 = getelementptr inbounds nuw i8, ptr %0, i64 40
  %10 = load ptr, ptr %9, align 8
  %11 = getelementptr i8, ptr %10, i64 32
  %.val6 = load ptr, ptr %11, align 8
  %12 = getelementptr inbounds nuw i8, ptr %.val6, i64 1056
  tail call void @_ZN4llvm15BitstreamWriter13EnterSubblockEjj(ptr noundef nonnull align 8 dereferenceable(152) %12, i32 noundef 9, i32 noundef 4)
  %.not = icmp eq ptr %2, null
  br i1 %.not, label %14, label %13

13:                                               ; preds = %5
  call void @_ZNK5clang13FullSourceLoc14getPresumedLocEb(ptr dead_on_unwind nonnull writable sret(%"class.clang::PresumedLoc") align 8 %7, ptr noundef nonnull align 8 dereferenceable(16) %6, i1 noundef zeroext true) #18
  %.sroa.01.0.copyload.pre = load i32, ptr %6, align 8
  %.sroa.23.0.copyload.pre = load ptr, ptr %8, align 8
  br label %15

14:                                               ; preds = %5
  call void @llvm.memset.p0.i64(ptr noundef nonnull align 8 dereferenceable(24) %7, i8 0, i64 24, i1 false)
  br label %15

15:                                               ; preds = %14, %13
  %.sroa.23.0.copyload = phi ptr [ null, %14 ], [ %.sroa.23.0.copyload.pre, %13 ]
  %.sroa.01.0.copyload = phi i32 [ %1, %14 ], [ %.sroa.01.0.copyload.pre, %13 ]
  %16 = load ptr, ptr %9, align 8
  call fastcc void @_ZN12_GLOBAL__N_112SDiagsWriter21EmitDiagnosticMessageEN5clang13FullSourceLocENS1_11PresumedLocENS1_17DiagnosticsEngine5LevelEN4llvm9StringRefENS6_12PointerUnionIJPKNS1_10DiagnosticEPKNS1_16StoredDiagnosticEEEE(ptr noundef nonnull align 8 dereferenceable(48) %16, i32 %.sroa.01.0.copyload, ptr %.sroa.23.0.copyload, ptr noundef nonnull byval(%"class.clang::PresumedLoc") align 8 %7, i32 noundef 1, ptr %3, i64 %4, i64 0)
  %17 = load ptr, ptr %9, align 8
  %18 = getelementptr i8, ptr %17, i64 32
  %.val = load ptr, ptr %18, align 8
  %19 = getelementptr inbounds nuw i8, ptr %.val, i64 1056
  call void @_ZN4llvm15BitstreamWriter9ExitBlockEv(ptr noundef nonnull align 8 dereferenceable(152) %19)
  ret void
}